target datalayout = "e-m:e-p270:32:32-p271:32:32-p272:64:64-i64:64-i128:128-f80:128-n8:16:32:64-S128"
target triple = "x86_64-pc-linux-gnu"

; Function Attrs: nounwind uwtable
define internal void @pushnumint(ptr noundef %0, double noundef %1) #0 {
  %3 = alloca ptr, align 8
  %4 = alloca double, align 8
  %5 = alloca i64, align 8
  store ptr %0, ptr %3, align 8, !tbaa !4
  store double %1, ptr %4, align 8, !tbaa !14
  call void @llvm.lifetime.start.p0(i64 8, ptr %5) #6
  %6 = load double, ptr %4, align 8, !tbaa !14
  %7 = fcmp oge double %6, 0xC3E0000000000000
  br i1 %7, label %8, label %17

8:                                                ; preds = %2
  %9 = load double, ptr %4, align 8, !tbaa !14
  %10 = fcmp olt double %9, 0x43E0000000000000
  br i1 %10, label %11, label %17

11:                                               ; preds = %8
  %12 = load double, ptr %4, align 8, !tbaa !14
  %13 = fptosi double %12 to i64
  store i64 %13, ptr %5, align 8, !tbaa !10
  br i1 true, label %14, label %17

14:                                               ; preds = %11
  %15 = load ptr, ptr %3, align 8, !tbaa !4
  %16 = load i64, ptr %5, align 8, !tbaa !10
  call void @lua_pushinteger(ptr noundef %15, i64 noundef %16)
  br label %20

17:                                               ; preds = %11, %8, %2
  %18 = load ptr, ptr %3, align 8, !tbaa !4
  %19 = load double, ptr %4, align 8, !tbaa !14
  call void @lua_pushnumber(ptr noundef %18, double noundef %19)
  br label %20

20:                                               ; preds = %17, %14
  call void @llvm.lifetime.end.p0(i64 8, ptr %5) #6
  ret void
}

; Function Attrs: nounwind uwtable
define internal i32 @math_modf(ptr noundef %0) #0 {
  %2 = alloca ptr, align 8
  %3 = alloca double, align 8
  %4 = alloca double, align 8
  store ptr %0, ptr %2, align 8, !tbaa !4
  %5 = load ptr, ptr %2, align 8, !tbaa !4
  %6 = call i32 @lua_isinteger(ptr noundef %5, i32 noundef 1)
  %7 = icmp ne i32 %6, 0
  br i1 %7, label %8, label %11

8:                                                ; preds = %1
  %9 = load ptr, ptr %2, align 8, !tbaa !4
  call void @lua_settop(ptr noundef %9, i32 noundef 1)
  %10 = load ptr, ptr %2, align 8, !tbaa !4
  call void @lua_pushnumber(ptr noundef %10, double noundef 0.000000e+00)
  br label %37

11:                                               ; preds = %1
  call void @llvm.lifetime.start.p0(i64 8, ptr %3) #6
  %12 = load ptr, ptr %2, align 8, !tbaa !4
  %13 = call double @luaL_checknumber(ptr noundef %12, i32 noundef 1)
  store double %13, ptr %3, align 8, !tbaa !14
  call void @llvm.lifetime.start.p0(i64 8, ptr %4) #6
  %14 = load double, ptr %3, align 8, !tbaa !14
  %15 = fcmp olt double %14, 0.000000e+00
  br i1 %15, label %16, label %19

16:                                               ; preds = %11
  %17 = load double, ptr %3, align 8, !tbaa !14
  %18 = call double @llvm.ceil.f64(double %17)
  br label %22

19:                                               ; preds = %11
  %20 = load double, ptr %3, align 8, !tbaa !14
  %21 = call double @llvm.floor.f64(double %20)
  br label %22

22:                                               ; preds = %19, %16
  %23 = phi double [ %18, %16 ], [ %21, %19 ]
  store double %23, ptr %4, align 8, !tbaa !14
  %24 = load ptr, ptr %2, align 8, !tbaa !4
  %25 = load double, ptr %4, align 8, !tbaa !14
  call void @pushnumint(ptr noundef %24, double noundef %25)
  %26 = load ptr, ptr %2, align 8, !tbaa !4
  %27 = load double, ptr %3, align 8, !tbaa !14
  %28 = load double, ptr %4, align 8, !tbaa !14
  %29 = fcmp oeq double %27, %28
  br i1 %29, label %30, label %31

30:                                               ; preds = %22
  br label %35

31:                                               ; preds = %22
  %32 = load double, ptr %3, align 8, !tbaa !14
  %33 = load double, ptr %4, align 8, !tbaa !14
  %34 = fsub double %32, %33
  br label %35

35:                                               ; preds = %31, %30
  %36 = phi double [ 0.000000e+00, %30 ], [ %34, %31 ]
  call void @lua_pushnumber(ptr noundef %26, double noundef %36)
  call void @llvm.lifetime.end.p0(i64 8, ptr %4) #6
  call void @llvm.lifetime.end.p0(i64 8, ptr %3) #6
  br label %37

37:                                               ; preds = %35, %8
  ret i32 2
}