; Function Attrs: nounwind uwtable
define internal noundef i32 @math_modf(ptr noundef %0) #0 {
  %2 = tail call i32 @lua_isinteger(ptr noundef %0, i32 noundef 1) #6
  %.not = icmp eq i32 %2, 0
  br i1 %.not, label %4, label %3

3:                                                ; preds = %1
  tail call void @lua_settop(ptr noundef %0, i32 noundef 1) #6
  br label %18

4:                                                ; preds = %1
  %5 = tail call double @luaL_checknumber(ptr noundef %0, i32 noundef 1) #6
  %6 = fcmp olt double %5, 0.000000e+00
  %7 = tail call double @llvm.ceil.f64(double %5)
  %8 = tail call double @llvm.floor.f64(double %5)
  %9 = select i1 %6, double %7, double %8
  %10 = fcmp oge double %9, 0xC3E0000000000000
  %11 = fcmp olt double %9, 0x43E0000000000000
  %or.cond.i = and i1 %10, %11
  br i1 %or.cond.i, label %12, label %14

12:                                               ; preds = %4
  %13 = fptosi double %9 to i64
  tail call void @lua_pushinteger(ptr noundef %0, i64 noundef %13) #6
  br label %pushnumint.exit

14:                                               ; preds = %4
  tail call void @lua_pushnumber(ptr noundef %0, double noundef %9) #6
  br label %pushnumint.exit

pushnumint.exit:                                  ; preds = %12, %14
  %15 = fcmp oeq double %5, %9
  %16 = fsub double %5, %9
  %17 = select i1 %15, double 0.000000e+00, double %16
  br label %18

18:                                               ; preds = %pushnumint.exit, %3
  %.sink = phi double [ %17, %pushnumint.exit ], [ 0.000000e+00, %3 ]
  tail call void @lua_pushnumber(ptr noundef %0, double noundef %.sink) #6
  ret i32 2
}